; Function Attrs: mustprogress uwtable
define i64 @_ZNK8QuantLib29YoYOptionletVolatilitySurface8baseDateEv(ptr noundef nonnull align 8 dereferenceable(112) %this) unnamed_addr #6 align 2 {
entry:
  %ref.tmp10 = alloca %"class.QuantLib::Date", align 8
  %vtable = load ptr, ptr %this, align 8, !tbaa !28
  %vfn = getelementptr inbounds i8, ptr %vtable, i64 144
  %0 = load ptr, ptr %vfn, align 8
  %call = tail call noundef zeroext i1 %0(ptr noundef nonnull align 8 dereferenceable(112) %this)
  br i1 %call, label %if.then, label %if.else

if.then:                                          ; preds = %entry
  %vtable2 = load ptr, ptr %this, align 8, !tbaa !28
  %vfn3 = getelementptr inbounds i8, ptr %vtable2, i64 40
  %1 = load ptr, ptr %vfn3, align 8
  %call4 = tail call noundef nonnull align 8 dereferenceable(8) ptr %1(ptr noundef nonnull align 8 dereferenceable(64) %this)
  %vtable5 = load ptr, ptr %this, align 8, !tbaa !28
  %vfn6 = getelementptr inbounds i8, ptr %vtable5, i64 128
  %2 = load ptr, ptr %vfn6, align 8
  %call7 = tail call i64 %2(ptr noundef nonnull align 8 dereferenceable(112) %this)
  %ref.tmp.sroa.0.0.extract.trunc = trunc i64 %call7 to i32
  %ref.tmp.sroa.4.0.extract.shift = lshr i64 %call7, 32
  %ref.tmp.sroa.4.0.extract.trunc = trunc nuw i64 %ref.tmp.sroa.4.0.extract.shift to i32
  %sub.i = sub nsw i32 0, %ref.tmp.sroa.0.0.extract.trunc
  %call3.i = tail call i64 @_ZN8QuantLib4Date7advanceERKS0_iNS_8TimeUnitE(ptr noundef nonnull align 8 dereferenceable(8) %call4, i32 noundef %sub.i, i32 noundef %ref.tmp.sroa.4.0.extract.trunc)
  br label %return

if.else:                                          ; preds = %entry
  call void @llvm.lifetime.start.p0(i64 8, ptr nonnull %ref.tmp10) #24
  %vtable11 = load ptr, ptr %this, align 8, !tbaa !28
  %vfn12 = getelementptr inbounds i8, ptr %vtable11, i64 40
  %3 = load ptr, ptr %vfn12, align 8
  %call13 = tail call noundef nonnull align 8 dereferenceable(8) ptr %3(ptr noundef nonnull align 8 dereferenceable(64) %this)
  %vtable15 = load ptr, ptr %this, align 8, !tbaa !28
  %vfn16 = getelementptr inbounds i8, ptr %vtable15, i64 128
  %4 = load ptr, ptr %vfn16, align 8
  %call17 = tail call i64 %4(ptr noundef nonnull align 8 dereferenceable(112) %this)
  %ref.tmp14.sroa.0.0.extract.trunc = trunc i64 %call17 to i32
  %ref.tmp14.sroa.4.0.extract.shift = lshr i64 %call17, 32
  %ref.tmp14.sroa.4.0.extract.trunc = trunc nuw i64 %ref.tmp14.sroa.4.0.extract.shift to i32
  %sub.i1 = sub nsw i32 0, %ref.tmp14.sroa.0.0.extract.trunc
  %call3.i3 = tail call i64 @_ZN8QuantLib4Date7advanceERKS0_iNS_8TimeUnitE(ptr noundef nonnull align 8 dereferenceable(8) %call13, i32 noundef %sub.i1, i32 noundef %ref.tmp14.sroa.4.0.extract.trunc)
  store i64 %call3.i3, ptr %ref.tmp10, align 8
  %vtable20 = load ptr, ptr %this, align 8, !tbaa !28
  %vfn21 = getelementptr inbounds i8, ptr %vtable20, i64 136
  %5 = load ptr, ptr %vfn21, align 8
  %call22 = tail call noundef i32 %5(ptr noundef nonnull align 8 dereferenceable(112) %this)
  %call23 = call { i64, i64 } @_ZN8QuantLib15inflationPeriodERKNS_4DateENS_9FrequencyE(ptr noundef nonnull align 8 dereferenceable(8) %ref.tmp10, i32 noundef %call22)
  %6 = extractvalue { i64, i64 } %call23, 0
  call void @llvm.lifetime.end.p0(i64 8, ptr nonnull %ref.tmp10) #24
  br label %return

return:                                           ; preds = %if.else, %if.then
  %retval.sroa.0.0 = phi i64 [ %call3.i, %if.then ], [ %6, %if.else ]
  ret i64 %retval.sroa.0.0
}